; Function Attrs: mustprogress uwtable
define void @_ZN22MeshShaderRenderPlugin7actionsEv(ptr dead_on_unwind noalias writable sret(%class.QList) align 8 %0, ptr nocapture noundef nonnull readonly align 8 dereferenceable(104) %1) unnamed_addr #9 align 2 personality ptr @__gxx_personality_v0 {
  %3 = getelementptr inbounds i8, ptr %1, i64 88
  %4 = load ptr, ptr %3, align 8
  store ptr %4, ptr %0, align 8
  %5 = load atomic i32, ptr %4 monotonic, align 4
  %6 = add i32 %5, -1
  %or.cond.not.i.i = icmp ult i32 %6, -2
  br i1 %or.cond.not.i.i, label %_ZN9QtPrivate8RefCount3refEv.exit.thread.i, label %_ZN9QtPrivate8RefCount3refEv.exit.i

_ZN9QtPrivate8RefCount3refEv.exit.thread.i:       ; preds = %2
  %7 = atomicrmw add ptr %4, i32 1 seq_cst, align 4
  br label %_ZN5QListIP7QActionEC2ERKS2_.exit

_ZN9QtPrivate8RefCount3refEv.exit.i:              ; preds = %2
  %.not.i = icmp eq i32 %5, 0
  br i1 %.not.i, label %8, label %_ZN5QListIP7QActionEC2ERKS2_.exit

8:                                                ; preds = %_ZN9QtPrivate8RefCount3refEv.exit.i
  %9 = getelementptr inbounds i8, ptr %4, i64 4
  %10 = load i32, ptr %9, align 4
  %11 = tail call noundef ptr @_ZN9QListData6detachEi(ptr noundef nonnull align 8 dereferenceable(8) %0, i32 noundef %10)
  %12 = load ptr, ptr %0, align 8
  %13 = getelementptr inbounds i8, ptr %12, i64 16
  %14 = getelementptr inbounds i8, ptr %12, i64 8
  %15 = load i32, ptr %14, align 8
  %16 = sext i32 %15 to i64
  %17 = getelementptr inbounds ptr, ptr %13, i64 %16
  %18 = load ptr, ptr %3, align 8
  %19 = getelementptr inbounds i8, ptr %18, i64 16
  %20 = getelementptr inbounds i8, ptr %18, i64 8
  %21 = load i32, ptr %20, align 8
  %22 = sext i32 %21 to i64
  %23 = getelementptr inbounds ptr, ptr %19, i64 %22
  %.not.i.i = icmp eq ptr %23, %17
  br i1 %.not.i.i, label %_ZN5QListIP7QActionEC2ERKS2_.exit, label %24

24:                                               ; preds = %8
  %25 = getelementptr inbounds i8, ptr %12, i64 12
  %26 = load i32, ptr %25, align 4
  %27 = sext i32 %26 to i64
  %28 = getelementptr inbounds ptr, ptr %13, i64 %27
  %29 = ptrtoint ptr %28 to i64
  %30 = ptrtoint ptr %17 to i64
  %31 = sub i64 %29, %30
  %32 = icmp sgt i64 %31, 0
  br i1 %32, label %33, label %_ZN5QListIP7QActionEC2ERKS2_.exit

33:                                               ; preds = %24
  tail call void @llvm.memcpy.p0.p0.i64(ptr nonnull align 8 %17, ptr nonnull align 8 %23, i64 %31, i1 false)
  br label %_ZN5QListIP7QActionEC2ERKS2_.exit

_ZN5QListIP7QActionEC2ERKS2_.exit:                ; preds = %_ZN9QtPrivate8RefCount3refEv.exit.thread.i, %_ZN9QtPrivate8RefCount3refEv.exit.i, %8, %24, %33
  ret void
}